target datalayout = "e-m:e-p270:32:32-p271:32:32-p272:64:64-i64:64-i128:128-f80:128-n8:16:32:64-S128"
target triple = "x86_64-pc-linux-gnu"

%struct.luaL_Buffer = type { ptr, i32, ptr, [8192 x i8] }

; Function Attrs: nounwind uwtable
define internal i32 @str_rep(ptr noundef %0) #0 {
  %2 = alloca ptr, align 8
  %3 = alloca i64, align 8
  %4 = alloca %struct.luaL_Buffer, align 8
  %5 = alloca ptr, align 8
  %6 = alloca i32, align 4
  store ptr %0, ptr %2, align 8, !tbaa !4
  call void @llvm.lifetime.start.p0(i64 8, ptr %3) #8
  call void @llvm.lifetime.start.p0(i64 8216, ptr %4) #8
  call void @llvm.lifetime.start.p0(i64 8, ptr %5) #8
  %7 = load ptr, ptr %2, align 8, !tbaa !4
  %8 = call ptr @luaL_checklstring(ptr noundef %7, i32 noundef 1, ptr noundef %3)
  store ptr %8, ptr %5, align 8, !tbaa !9
  call void @llvm.lifetime.start.p0(i64 4, ptr %6) #8
  %9 = load ptr, ptr %2, align 8, !tbaa !4
  %10 = call i64 @luaL_checkinteger(ptr noundef %9, i32 noundef 2)
  %11 = trunc i64 %10 to i32
  store i32 %11, ptr %6, align 4, !tbaa !13
  %12 = load ptr, ptr %2, align 8, !tbaa !4
  call void @luaL_buffinit(ptr noundef %12, ptr noundef %4)
  br label %13

13:                                               ; preds = %17, %1
  %14 = load i32, ptr %6, align 4, !tbaa !13
  %15 = add nsw i32 %14, -1
  store i32 %15, ptr %6, align 4, !tbaa !13
  %16 = icmp sgt i32 %14, 0
  br i1 %16, label %17, label %20

17:                                               ; preds = %13
  %18 = load ptr, ptr %5, align 8, !tbaa !9
  %19 = load i64, ptr %3, align 8, !tbaa !11
  call void @luaL_addlstring(ptr noundef %4, ptr noundef %18, i64 noundef %19)
  br label %13, !llvm.loop !31

20:                                               ; preds = %13
  call void @luaL_pushresult(ptr noundef %4)
  call void @llvm.lifetime.end.p0(i64 4, ptr %6) #8
  call void @llvm.lifetime.end.p0(i64 8, ptr %5) #8
  call void @llvm.lifetime.end.p0(i64 8216, ptr %4) #8
  call void @llvm.lifetime.end.p0(i64 8, ptr %3) #8
  ret i32 1
}