; Function Attrs: nounwind uwtable
define internal noundef i32 @str_rep(ptr noundef %0) #0 {
  %2 = alloca i64, align 8
  %3 = alloca %struct.luaL_Buffer, align 8
  call void @llvm.lifetime.start.p0(i64 8, ptr nonnull %2) #10
  call void @llvm.lifetime.start.p0(i64 8216, ptr nonnull %3) #10
  %4 = call ptr @luaL_checklstring(ptr noundef %0, i32 noundef 1, ptr noundef nonnull %2) #10
  %5 = call i64 @luaL_checkinteger(ptr noundef %0, i32 noundef 2) #10
  %6 = trunc i64 %5 to i32
  call void @luaL_buffinit(ptr noundef %0, ptr noundef nonnull %3) #10
  %7 = icmp sgt i32 %6, 0
  br i1 %7, label %.lr.ph, label %._crit_edge

.lr.ph:                                           ; preds = %1, %.lr.ph
  %.04 = phi i32 [ %8, %.lr.ph ], [ %6, %1 ]
  %8 = add nsw i32 %.04, -1
  %9 = load i64, ptr %2, align 8, !tbaa !4
  call void @luaL_addlstring(ptr noundef nonnull %3, ptr noundef %4, i64 noundef %9) #10
  %10 = icmp samesign ugt i32 %.04, 1
  br i1 %10, label %.lr.ph, label %._crit_edge, !llvm.loop !39

._crit_edge:                                      ; preds = %.lr.ph, %1
  call void @luaL_pushresult(ptr noundef nonnull %3) #10
  call void @llvm.lifetime.end.p0(i64 8216, ptr nonnull %3) #10
  call void @llvm.lifetime.end.p0(i64 8, ptr nonnull %2) #10
  ret i32 1
}